; Function Attrs: mustprogress uwtable
define dso_local void @_ZN4pbrt16TextureMapping3D6CreateERKNS_19ParameterDictionaryERKNS_9TransformEPKNS_7FileLocEN4pstd3pmr21polymorphic_allocatorISt4byteEE(ptr noalias nocapture writeonly sret(%"class.pbrt::TextureMapping3D") align 8 %agg.result, ptr nocapture noundef nonnull readnone align 8 dereferenceable(108) %parameters, ptr nocapture noundef nonnull readonly align 4 dereferenceable(128) %renderFromTexture, ptr nocapture noundef readnone %loc, ptr %alloc.coerce) local_unnamed_addr #0 align 2 {
entry:
  %ref.tmp = alloca %"class.pbrt::Transform", align 4
  %mInv.i.i = getelementptr inbounds i8, ptr %renderFromTexture, i64 64
  call void @llvm.memcpy.p0.p0.i64(ptr noundef nonnull align 4 dereferenceable(64) %ref.tmp, ptr noundef nonnull align 4 dereferenceable(64) %mInv.i.i, i64 64, i1 false)
  %mInv3.i.i = getelementptr inbounds i8, ptr %ref.tmp, i64 64
  call void @llvm.memcpy.p0.p0.i64(ptr noundef nonnull align 4 dereferenceable(64) %mInv3.i.i, ptr noundef nonnull align 4 dereferenceable(64) %renderFromTexture, i64 64, i1 false)
  %vtable.i.i.i.i = load ptr, ptr %alloc.coerce, align 8
  %vfn.i.i.i.i = getelementptr inbounds i8, ptr %vtable.i.i.i.i, i64 16
  %0 = load ptr, ptr %vfn.i.i.i.i, align 8
  %call.i.i.i.i = tail call noundef ptr %0(ptr noundef nonnull align 8 dereferenceable(8) %alloc.coerce, i64 noundef 128, i64 noundef 4)
  call void @llvm.memcpy.p0.p0.i64(ptr noundef nonnull align 4 dereferenceable(128) %call.i.i.i.i, ptr noundef nonnull align 4 dereferenceable(128) %ref.tmp, i64 128, i1 false)
  %1 = ptrtoint ptr %call.i.i.i.i to i64
  %or.i.i = or i64 %1, 144115188075855872
  store i64 %or.i.i, ptr %agg.result, align 8
  ret void
}